target datalayout = "e-m:e-p270:32:32-p271:32:32-p272:64:64-i64:64-i128:128-f80:128-n8:16:32:64-S128"
target triple = "x86_64-pc-linux-gnu"

%union.pthread_cond_t = type { %struct.__pthread_cond_s }
%struct.__pthread_cond_s = type { %union.__atomic_wide_counter, %union.__atomic_wide_counter, [2 x i32], [2 x i32], i32, i32, [2 x i32] }
%union.__atomic_wide_counter = type { i64 }
%union.pthread_mutex_t = type { %struct.__pthread_mutex_s }
%struct.__pthread_mutex_s = type { i32, i32, i32, i32, i32, i16, i16, %struct.__pthread_internal_list }
%struct.__pthread_internal_list = type { ptr, ptr }
%struct.slurm_conf_t = type { i64, ptr, i16, ptr, ptr, ptr, ptr, ptr, i16, ptr, ptr, ptr, ptr, ptr, ptr, ptr, i16, ptr, ptr, ptr, ptr, i16, ptr, ptr, ptr, i64, ptr, ptr, ptr, ptr, i16, ptr, ptr, i16, i32, ptr, i32, ptr, i32, i32, ptr, ptr, i64, i64, ptr, i16, i16, ptr, i32, i32, ptr, i32, ptr, i32, i16, i16, i16, ptr, i16, i16, ptr, ptr, i32, i16, i16, ptr, i32, i16, ptr, ptr, ptr, ptr, i16, ptr, ptr, ptr, ptr, i32, ptr, ptr, ptr, ptr, i16, i16, ptr, i32, i32, i32, i16, i16, ptr, ptr, i16, ptr, ptr, i32, i32, i32, i32, i32, i64, i32, i32, i16, ptr, ptr, i32, ptr, ptr, ptr, i16, i32, ptr, ptr, i16, ptr, ptr, i32, i16, ptr, ptr, ptr, ptr, i32, i32, i16, i16, i32, ptr, i16, ptr, i32, i32, i32, i32, i32, i32, ptr, i16, ptr, ptr, i32, i16, ptr, i32, i16, i16, ptr, ptr, ptr, i16, ptr, ptr, ptr, ptr, i16, i16, ptr, i16, ptr, i16, ptr, i16, ptr, i16, ptr, ptr, ptr, ptr, i16, ptr, ptr, ptr, i32, ptr, i32, ptr, ptr, i16, ptr, ptr, i32, i16, ptr, ptr, i16, i16, ptr, i16, ptr, ptr, ptr, i32, ptr, i16, i16, ptr, ptr, ptr, ptr, ptr, ptr, ptr, ptr, i16, i32, i16, ptr, ptr, ptr, ptr, i32, ptr, ptr, ptr, i16, ptr, ptr, ptr, i16, ptr, i16, ptr, i16, i16, ptr }
%struct.shutdown_arg_t = type { i32, i8 }
%struct.slurm_msg = type { %struct.sockaddr_storage, ptr, i32, i32, i32, i8, i32, i8, i32, ptr, ptr, i32, ptr, ptr, i16, i8, i16, i16, %struct.forward, ptr, %struct.sockaddr_storage, ptr }
%struct.forward = type { %struct.slurm_node_alias_addrs_t, i16, i16, ptr, i32, i16, i16 }
%struct.slurm_node_alias_addrs_t = type { i64, ptr, ptr, i32, ptr }
%struct.sockaddr_storage = type { i16, [118 x i8], i64 }
%struct.shutdown_msg = type { i16 }

@slurm_conf = external global %struct.slurm_conf_t, align 8
@.str.43 = private unnamed_addr constant [29 x i8] c"%s: pthread_mutex_lock(): %m\00", align 1
@.str.44 = private unnamed_addr constant [31 x i8] c"%s: pthread_mutex_unlock(): %m\00", align 1
@.str.58 = private unnamed_addr constant [36 x i8] c"%s:%d %s: pthread_cond_signal(): %m\00", align 1
@.str.59 = private unnamed_addr constant [13 x i8] c"controller.c\00", align 1
@bu_rc = internal global i32 0, align 4
@bu_mutex = internal global %union.pthread_mutex_t zeroinitializer, align 8
@bu_thread_cnt = internal global i32 0, align 4
@bu_cond = internal global %union.pthread_cond_t zeroinitializer, align 8
@.str.223 = private unnamed_addr constant [45 x i8] c"Requesting control from backup controller %s\00", align 1
@.str.224 = private unnamed_addr constant [20 x i8] c"%s:send/recv %s: %m\00", align 1
@__func__._shutdown_bu_thread = private unnamed_addr constant [20 x i8] c"_shutdown_bu_thread\00", align 1
@.str.225 = private unnamed_addr constant [32 x i8] c"backup controller %s responding\00", align 1
@.str.226 = private unnamed_addr constant [46 x i8] c"backup controller %s has relinquished control\00", align 1
@.str.227 = private unnamed_addr constant [12 x i8] c"%s (%s): %s\00", align 1

; Function Attrs: nounwind uwtable
define internal ptr @_shutdown_bu_thread(ptr noundef %0) #0 {
  %2 = alloca ptr, align 8
  %3 = alloca i32, align 4
  %4 = alloca i32, align 4
  %5 = alloca i32, align 4
  %6 = alloca %struct.slurm_msg, align 8
  %7 = alloca i8, align 1
  %8 = alloca ptr, align 8
  %9 = alloca %struct.shutdown_msg, align 2
  %10 = alloca i32, align 4
  %11 = alloca i32, align 4
  %12 = alloca i32, align 4
  store ptr %0, ptr %2, align 8
  call void @llvm.lifetime.start.p0(i64 4, ptr %3) #11
  call void @llvm.lifetime.start.p0(i64 4, ptr %4) #11
  store i32 0, ptr %4, align 4
  call void @llvm.lifetime.start.p0(i64 4, ptr %5) #11
  store i32 0, ptr %5, align 4
  call void @llvm.lifetime.start.p0(i64 424, ptr %6) #11
  call void @llvm.lifetime.start.p0(i64 1, ptr %7) #11
  store i8 0, ptr %7, align 1
  call void @llvm.lifetime.start.p0(i64 8, ptr %8) #11
  call void @llvm.lifetime.start.p0(i64 2, ptr %9) #11
  %13 = load ptr, ptr %2, align 8
  store ptr %13, ptr %8, align 8
  %14 = load ptr, ptr %8, align 8
  %15 = getelementptr inbounds nuw %struct.shutdown_arg_t, ptr %14, i32 0, i32 0
  %16 = load i32, ptr %15, align 4
  store i32 %16, ptr %3, align 4
  %17 = load ptr, ptr %8, align 8
  %18 = getelementptr inbounds nuw %struct.shutdown_arg_t, ptr %17, i32 0, i32 1
  %19 = load i8, ptr %18, align 4, !range !8, !noundef !9
  %20 = trunc i8 %19 to i1
  %21 = zext i1 %20 to i8
  store i8 %21, ptr %7, align 1
  call void @slurm_xfree(ptr noundef %2)
  call void @slurm_msg_t_init(ptr noundef %6)
  %22 = load i32, ptr getelementptr inbounds nuw (%struct.slurm_conf_t, ptr @slurm_conf, i32 0, i32 173), align 8
  call void @slurm_msg_set_r_uid(ptr noundef %6, i32 noundef %22)
  %23 = getelementptr inbounds nuw %struct.slurm_msg, ptr %6, i32 0, i32 0
  %24 = load i32, ptr getelementptr inbounds nuw (%struct.slurm_conf_t, ptr @slurm_conf, i32 0, i32 181), align 8
  %25 = trunc i32 %24 to i16
  %26 = load ptr, ptr getelementptr inbounds nuw (%struct.slurm_conf_t, ptr @slurm_conf, i32 0, i32 35), align 8
  %27 = load i32, ptr %3, align 4
  %28 = sext i32 %27 to i64
  %29 = getelementptr inbounds ptr, ptr %26, i64 %28
  %30 = load ptr, ptr %29, align 8
  call void @slurm_set_addr(ptr noundef %23, i16 noundef zeroext %25, ptr noundef %30)
  %31 = load i8, ptr %7, align 1, !range !8, !noundef !9
  %32 = trunc i8 %31 to i1
  br i1 %32, label %33, label %37

33:                                               ; preds = %1
  %34 = getelementptr inbounds nuw %struct.slurm_msg, ptr %6, i32 0, i32 16
  store i16 1005, ptr %34, align 4
  %35 = getelementptr inbounds nuw %struct.shutdown_msg, ptr %9, i32 0, i32 0
  store i16 2, ptr %35, align 2
  %36 = getelementptr inbounds nuw %struct.slurm_msg, ptr %6, i32 0, i32 13
  store ptr %9, ptr %36, align 8
  br label %39

37:                                               ; preds = %1
  %38 = getelementptr inbounds nuw %struct.slurm_msg, ptr %6, i32 0, i32 16
  store i16 1009, ptr %38, align 4
  br label %39

39:                                               ; preds = %37, %33
  br label %40

40:                                               ; preds = %39
  br label %41

41:                                               ; preds = %40
  %42 = call i32 @get_log_level()
  %43 = icmp sge i32 %42, 5
  br i1 %43, label %44, label %50

44:                                               ; preds = %41
  %45 = load ptr, ptr getelementptr inbounds nuw (%struct.slurm_conf_t, ptr @slurm_conf, i32 0, i32 37), align 8
  %46 = load i32, ptr %3, align 4
  %47 = sext i32 %46 to i64
  %48 = getelementptr inbounds ptr, ptr %45, i64 %47
  %49 = load ptr, ptr %48, align 8
  call void (i32, ptr, ...) @log_var(i32 noundef 5, ptr noundef @.str.223, ptr noundef %49)
  br label %50

50:                                               ; preds = %44, %41
  br label %51

51:                                               ; preds = %50
  br label %52

52:                                               ; preds = %51
  br label %53

53:                                               ; preds = %52
  br label %54

54:                                               ; preds = %53
  %55 = call i32 @slurm_send_recv_rc_msg_only_one(ptr noundef %6, ptr noundef %5, i32 noundef 30000)
  %56 = icmp slt i32 %55, 0
  br i1 %56, label %57, label %64

57:                                               ; preds = %54
  %58 = load ptr, ptr getelementptr inbounds nuw (%struct.slurm_conf_t, ptr @slurm_conf, i32 0, i32 37), align 8
  %59 = load i32, ptr %3, align 4
  %60 = sext i32 %59 to i64
  %61 = getelementptr inbounds ptr, ptr %58, i64 %60
  %62 = load ptr, ptr %61, align 8
  %63 = call i32 (ptr, ...) @error(ptr noundef @.str.224, ptr noundef @__func__._shutdown_bu_thread, ptr noundef %62)
  store i32 -1, ptr %4, align 4
  br label %113

64:                                               ; preds = %54
  %65 = load i32, ptr %5, align 4
  %66 = icmp eq i32 %65, 2037
  br i1 %66, label %67, label %83

67:                                               ; preds = %64
  br label %68

68:                                               ; preds = %67
  br label %69

69:                                               ; preds = %68
  %70 = call i32 @get_log_level()
  %71 = icmp sge i32 %70, 5
  br i1 %71, label %72, label %78

72:                                               ; preds = %69
  %73 = load ptr, ptr getelementptr inbounds nuw (%struct.slurm_conf_t, ptr @slurm_conf, i32 0, i32 37), align 8
  %74 = load i32, ptr %3, align 4
  %75 = sext i32 %74 to i64
  %76 = getelementptr inbounds ptr, ptr %73, i64 %75
  %77 = load ptr, ptr %76, align 8
  call void (i32, ptr, ...) @log_var(i32 noundef 5, ptr noundef @.str.225, ptr noundef %77)
  br label %78

78:                                               ; preds = %72, %69
  br label %79

79:                                               ; preds = %78
  br label %80

80:                                               ; preds = %79
  br label %81

81:                                               ; preds = %80
  br label %82

82:                                               ; preds = %81
  br label %112

83:                                               ; preds = %64
  %84 = load i32, ptr %5, align 4
  %85 = icmp eq i32 %84, 0
  br i1 %85, label %86, label %102

86:                                               ; preds = %83
  br label %87

87:                                               ; preds = %86
  br label %88

88:                                               ; preds = %87
  %89 = call i32 @get_log_level()
  %90 = icmp sge i32 %89, 5
  br i1 %90, label %91, label %97

91:                                               ; preds = %88
  %92 = load ptr, ptr getelementptr inbounds nuw (%struct.slurm_conf_t, ptr @slurm_conf, i32 0, i32 37), align 8
  %93 = load i32, ptr %3, align 4
  %94 = sext i32 %93 to i64
  %95 = getelementptr inbounds ptr, ptr %92, i64 %94
  %96 = load ptr, ptr %95, align 8
  call void (i32, ptr, ...) @log_var(i32 noundef 5, ptr noundef @.str.226, ptr noundef %96)
  br label %97

97:                                               ; preds = %91, %88
  br label %98

98:                                               ; preds = %97
  br label %99

99:                                               ; preds = %98
  br label %100

100:                                              ; preds = %99
  br label %101

101:                                              ; preds = %100
  br label %111

102:                                              ; preds = %83
  %103 = load ptr, ptr getelementptr inbounds nuw (%struct.slurm_conf_t, ptr @slurm_conf, i32 0, i32 37), align 8
  %104 = load i32, ptr %3, align 4
  %105 = sext i32 %104 to i64
  %106 = getelementptr inbounds ptr, ptr %103, i64 %105
  %107 = load ptr, ptr %106, align 8
  %108 = load i32, ptr %5, align 4
  %109 = call ptr @slurm_strerror(i32 noundef %108)
  %110 = call i32 (ptr, ...) @error(ptr noundef @.str.227, ptr noundef @__func__._shutdown_bu_thread, ptr noundef %107, ptr noundef %109)
  store i32 -1, ptr %4, align 4
  br label %111

111:                                              ; preds = %102, %101
  br label %112

112:                                              ; preds = %111, %82
  br label %113

113:                                              ; preds = %112, %57
  br label %114

114:                                              ; preds = %113
  call void @llvm.lifetime.start.p0(i64 4, ptr %10) #11
  %115 = call i32 @pthread_mutex_lock(ptr noundef @bu_mutex) #11
  store i32 %115, ptr %10, align 4
  %116 = load i32, ptr %10, align 4
  %117 = icmp ne i32 %116, 0
  br i1 %117, label %118, label %121

118:                                              ; preds = %114
  %119 = load i32, ptr %10, align 4
  %120 = call ptr @__errno_location() #14
  store i32 %119, ptr %120, align 4
  call void (ptr, ...) @fatal_abort(ptr noundef @.str.43, ptr noundef @__func__._shutdown_bu_thread) #12
  unreachable

121:                                              ; preds = %114
  call void @llvm.lifetime.end.p0(i64 4, ptr %10) #11
  br label %122

122:                                              ; preds = %121
  br label %123

123:                                              ; preds = %122
  %124 = load i32, ptr %4, align 4
  %125 = icmp ne i32 %124, 0
  br i1 %125, label %126, label %128

126:                                              ; preds = %123
  %127 = load i32, ptr %4, align 4
  store i32 %127, ptr @bu_rc, align 4
  br label %128

128:                                              ; preds = %126, %123
  %129 = load i32, ptr @bu_thread_cnt, align 4
  %130 = add nsw i32 %129, -1
  store i32 %130, ptr @bu_thread_cnt, align 4
  br label %131

131:                                              ; preds = %128
  call void @llvm.lifetime.start.p0(i64 4, ptr %11) #11
  %132 = call i32 @pthread_cond_signal(ptr noundef @bu_cond) #11
  store i32 %132, ptr %11, align 4
  %133 = load i32, ptr %11, align 4
  %134 = icmp ne i32 %133, 0
  br i1 %134, label %135, label %139

135:                                              ; preds = %131
  %136 = load i32, ptr %11, align 4
  %137 = call ptr @__errno_location() #14
  store i32 %136, ptr %137, align 4
  %138 = call i32 (ptr, ...) @error(ptr noundef @.str.58, ptr noundef @.str.59, i32 noundef 3120, ptr noundef @__func__._shutdown_bu_thread)
  br label %139

139:                                              ; preds = %135, %131
  call void @llvm.lifetime.end.p0(i64 4, ptr %11) #11
  br label %140

140:                                              ; preds = %139
  br label %141

141:                                              ; preds = %140
  br label %142

142:                                              ; preds = %141
  call void @llvm.lifetime.start.p0(i64 4, ptr %12) #11
  %143 = call i32 @pthread_mutex_unlock(ptr noundef @bu_mutex) #11
  store i32 %143, ptr %12, align 4
  %144 = load i32, ptr %12, align 4
  %145 = icmp ne i32 %144, 0
  br i1 %145, label %146, label %149

146:                                              ; preds = %142
  %147 = load i32, ptr %12, align 4
  %148 = call ptr @__errno_location() #14
  store i32 %147, ptr %148, align 4
  call void (ptr, ...) @fatal_abort(ptr noundef @.str.44, ptr noundef @__func__._shutdown_bu_thread) #12
  unreachable

149:                                              ; preds = %142
  call void @llvm.lifetime.end.p0(i64 4, ptr %12) #11
  br label %150

150:                                              ; preds = %149
  br label %151

151:                                              ; preds = %150
  call void @llvm.lifetime.end.p0(i64 2, ptr %9) #11
  call void @llvm.lifetime.end.p0(i64 8, ptr %8) #11
  call void @llvm.lifetime.end.p0(i64 1, ptr %7) #11
  call void @llvm.lifetime.end.p0(i64 424, ptr %6) #11
  call void @llvm.lifetime.end.p0(i64 4, ptr %5) #11
  call void @llvm.lifetime.end.p0(i64 4, ptr %4) #11
  call void @llvm.lifetime.end.p0(i64 4, ptr %3) #11
  ret ptr null
}