; Function Attrs: nounwind uwtable
define internal noalias noundef ptr @_shutdown_bu_thread(ptr noundef %0) #6 {
  %2 = alloca ptr, align 8
  %3 = alloca i32, align 4
  %4 = alloca %struct.slurm_msg, align 8
  %5 = alloca %struct.shutdown_msg, align 2
  store ptr %0, ptr %2, align 8
  call void @llvm.lifetime.start.p0(i64 4, ptr nonnull %3) #19
  store i32 0, ptr %3, align 4
  call void @llvm.lifetime.start.p0(i64 424, ptr nonnull %4) #19
  call void @llvm.lifetime.start.p0(i64 2, ptr nonnull %5) #19
  %6 = load i32, ptr %0, align 4
  %7 = getelementptr inbounds nuw i8, ptr %0, i64 4
  %8 = load i8, ptr %7, align 4, !range !12, !noundef !13
  %9 = trunc nuw i8 %8 to i1
  call void @slurm_xfree(ptr noundef nonnull %2) #19
  call void @slurm_msg_t_init(ptr noundef nonnull %4) #19
  %10 = load i32, ptr getelementptr inbounds nuw (i8, ptr @slurm_conf, i64 1152), align 8
  call void @slurm_msg_set_r_uid(ptr noundef nonnull %4, i32 noundef %10) #19
  %11 = load i32, ptr getelementptr inbounds nuw (i8, ptr @slurm_conf, i64 1216), align 8
  %12 = trunc i32 %11 to i16
  %13 = load ptr, ptr getelementptr inbounds nuw (i8, ptr @slurm_conf, i64 272), align 8
  %14 = sext i32 %6 to i64
  %15 = getelementptr inbounds ptr, ptr %13, i64 %14
  %16 = load ptr, ptr %15, align 8
  call void @slurm_set_addr(ptr noundef nonnull %4, i16 noundef zeroext %12, ptr noundef %16) #19
  br i1 %9, label %17, label %19

17:                                               ; preds = %1
  store i16 2, ptr %5, align 2
  %18 = getelementptr inbounds nuw i8, ptr %4, i64 200
  store ptr %5, ptr %18, align 8
  br label %19

19:                                               ; preds = %1, %17
  %.sink = phi i16 [ 1005, %17 ], [ 1009, %1 ]
  %20 = getelementptr inbounds nuw i8, ptr %4, i64 212
  store i16 %.sink, ptr %20, align 4
  %21 = call i32 @get_log_level() #19
  %22 = icmp sgt i32 %21, 4
  br i1 %22, label %23, label %27

23:                                               ; preds = %19
  %24 = load ptr, ptr getelementptr inbounds nuw (i8, ptr @slurm_conf, i64 288), align 8
  %25 = getelementptr inbounds ptr, ptr %24, i64 %14
  %26 = load ptr, ptr %25, align 8
  call void (i32, ptr, ...) @log_var(i32 noundef 5, ptr noundef nonnull @.str.223, ptr noundef %26) #19
  br label %27

27:                                               ; preds = %23, %19
  %28 = call i32 @slurm_send_recv_rc_msg_only_one(ptr noundef nonnull %4, ptr noundef nonnull %3, i32 noundef 30000) #19
  %29 = icmp slt i32 %28, 0
  br i1 %29, label %30, label %35

30:                                               ; preds = %27
  %31 = load ptr, ptr getelementptr inbounds nuw (i8, ptr @slurm_conf, i64 288), align 8
  %32 = getelementptr inbounds ptr, ptr %31, i64 %14
  %33 = load ptr, ptr %32, align 8
  %34 = call i32 (ptr, ...) @error(ptr noundef nonnull @.str.224, ptr noundef nonnull @__func__._shutdown_bu_thread, ptr noundef %33) #19
  br label %57

35:                                               ; preds = %27
  %36 = load i32, ptr %3, align 4
  switch i32 %36, label %51 [
    i32 2037, label %37
    i32 0, label %44
  ]

37:                                               ; preds = %35
  %38 = call i32 @get_log_level() #19
  %39 = icmp sgt i32 %38, 4
  br i1 %39, label %40, label %57

40:                                               ; preds = %37
  %41 = load ptr, ptr getelementptr inbounds nuw (i8, ptr @slurm_conf, i64 288), align 8
  %42 = getelementptr inbounds ptr, ptr %41, i64 %14
  %43 = load ptr, ptr %42, align 8
  call void (i32, ptr, ...) @log_var(i32 noundef 5, ptr noundef nonnull @.str.225, ptr noundef %43) #19
  br label %57

44:                                               ; preds = %35
  %45 = call i32 @get_log_level() #19
  %46 = icmp sgt i32 %45, 4
  br i1 %46, label %47, label %57

47:                                               ; preds = %44
  %48 = load ptr, ptr getelementptr inbounds nuw (i8, ptr @slurm_conf, i64 288), align 8
  %49 = getelementptr inbounds ptr, ptr %48, i64 %14
  %50 = load ptr, ptr %49, align 8
  call void (i32, ptr, ...) @log_var(i32 noundef 5, ptr noundef nonnull @.str.226, ptr noundef %50) #19
  br label %57

51:                                               ; preds = %35
  %52 = load ptr, ptr getelementptr inbounds nuw (i8, ptr @slurm_conf, i64 288), align 8
  %53 = getelementptr inbounds ptr, ptr %52, i64 %14
  %54 = load ptr, ptr %53, align 8
  %55 = call ptr @slurm_strerror(i32 noundef %36) #19
  %56 = call i32 (ptr, ...) @error(ptr noundef nonnull @.str.227, ptr noundef nonnull @__func__._shutdown_bu_thread, ptr noundef %54, ptr noundef %55) #19
  br label %57

57:                                               ; preds = %30, %51, %47, %44, %37, %40
  %.not20 = phi i1 [ false, %30 ], [ true, %40 ], [ true, %37 ], [ true, %47 ], [ true, %44 ], [ false, %51 ]
  %58 = call i32 @pthread_mutex_lock(ptr noundef nonnull @bu_mutex) #19
  %.not = icmp eq i32 %58, 0
  br i1 %.not, label %61, label %59

59:                                               ; preds = %57
  %60 = tail call ptr @__errno_location() #21
  store i32 %58, ptr %60, align 4
  call void (ptr, ...) @fatal_abort(ptr noundef nonnull @.str.43, ptr noundef nonnull @__func__._shutdown_bu_thread) #20
  unreachable

61:                                               ; preds = %57
  br i1 %.not20, label %63, label %62

62:                                               ; preds = %61
  store i1 true, ptr @bu_rc, align 4
  br label %63

63:                                               ; preds = %62, %61
  %64 = load i32, ptr @bu_thread_cnt, align 4
  %65 = add nsw i32 %64, -1
  store i32 %65, ptr @bu_thread_cnt, align 4
  %66 = call i32 @pthread_cond_signal(ptr noundef nonnull @bu_cond) #19
  %.not21 = icmp eq i32 %66, 0
  br i1 %.not21, label %70, label %67

67:                                               ; preds = %63
  %68 = tail call ptr @__errno_location() #21
  store i32 %66, ptr %68, align 4
  %69 = call i32 (ptr, ...) @error(ptr noundef nonnull @.str.58, ptr noundef nonnull @.str.59, i32 noundef 3120, ptr noundef nonnull @__func__._shutdown_bu_thread) #19
  br label %70

70:                                               ; preds = %67, %63
  %71 = call i32 @pthread_mutex_unlock(ptr noundef nonnull @bu_mutex) #19
  %.not22 = icmp eq i32 %71, 0
  br i1 %.not22, label %74, label %72

72:                                               ; preds = %70
  %73 = tail call ptr @__errno_location() #21
  store i32 %71, ptr %73, align 4
  call void (ptr, ...) @fatal_abort(ptr noundef nonnull @.str.44, ptr noundef nonnull @__func__._shutdown_bu_thread) #20
  unreachable

74:                                               ; preds = %70
  call void @llvm.lifetime.end.p0(i64 2, ptr nonnull %5) #19
  call void @llvm.lifetime.end.p0(i64 424, ptr nonnull %4) #19
  call void @llvm.lifetime.end.p0(i64 4, ptr nonnull %3) #19
  ret ptr null
}